Certificate:
    Data:
        Version: 3 (0x2)
        Serial Number: 6 (0x6)
        Signature Algorithm: sha1WithRSAEncryption
        Issuer: C=FR, ST=Brittany, L=Brest, O=Diateam Corp., CN=Diateam CA
        Validity
            Not Before: Feb  4 11:01:12 2010 GMT
            Not After : Feb  4 11:01:12 2011 GMT
        Subject: C=FR, ST=Brittany, O=Diateam Corp., CN=Sample Master
        Subject Public Key Info:
            Public Key Algorithm: rsaEncryption
            RSA Public Key: (512 bit)
                Modulus (512 bit):
                    00:c2:3e:7a:eb:13:17:d3:8c:da:7f:b1:00:90:84:
                    4c:bb:40:b8:6b:a8:d9:32:10:80:96:36:43:c7:45:
                    53:a8:76:77:7e:9c:5d:96:6b:90:ae:fd:c5:97:bc:
                    7f:c1:2e:93:8e:67:a0:7d:b8:0d:c2:e3:64:e0:46:
                    ff:99:8e:a4:1b
                Exponent: 65537 (0x10001)
        X509v3 extensions:
            X509v3 Basic Constraints: 
                CA:FALSE
            Netscape Cert Type: 
                SSL Client, SSL Server
            Netscape Comment: 
                OpenSSL Generated Certificate
            X509v3 Subject Key Identifier: 
                67:52:8B:6A:5D:C8:18:70:78:CD:CF:F3:3B:3D:1E:2D:43:C6:F1:A9
            X509v3 Authority Key Identifier: 
                keyid:23:19:86:5C:CB:A7:58:ED:EC:D7:E5:4D:96:06:50:94:63:8C:12:43

    Signature Algorithm: sha1WithRSAEncryption
        9e:80:d0:f2:b5:68:ca:81:4e:11:4c:ee:bb:0e:57:c4:e5:0a:
        11:e7:b4:f9:47:54:4b:10:35:f0:a2:c2:f4:b2:09:25:df:a3:
        d0:2a:35:ca:0b:8f:a3:4d:36:43:fc:70:9a:0a:cf:78:c5:32:
        3e:71:ba:50:60:47:ec:5e:67:c0:b7:03:40:39:3b:35:a9:4d:
        96:ff:44:80:6f:33:77:9f:c4:5f:10:48:96:6e:26:e4:d6:96:
        c8:10:ef:49:3d:cb:f8:e6:72:2a:e0:13:64:ce:14:b6:e1:af:
        80:23:78:19:a3:56:3c:3b:cb:6f:4d:dc:de:b7:7e:dc:74:75:
        d9:aa
-----BEGIN CERTIFICATE-----
MIICbzCCAdigAwIBAgIBBjANBgkqhkiG9w0BAQUFADBdMQswCQYDVQQGEwJGUjER
MA8GA1UECBMIQnJpdHRhbnkxDjAMBgNVBAcTBUJyZXN0MRYwFAYDVQQKEw1EaWF0
ZWFtIENvcnAuMRMwEQYDVQQDEwpEaWF0ZWFtIENBMB4XDTEwMDIwNDExMDExMloX
DTExMDIwNDExMDExMlowUDELMAkGA1UEBhMCRlIxETAPBgNVBAgTCEJyaXR0YW55
MRYwFAYDVQQKEw1EaWF0ZWFtIENvcnAuMRYwFAYDVQQDEw1TYW1wbGUgTWFzdGVy
MFwwDQYJKoZIhvcNAQEBBQADSwAwSAJBAMI+eusTF9OM2n+xAJCETLtAuGuo2TIQ
gJY2Q8dFU6h2d36cXZZrkK79xZe8f8Euk45noH24DcLjZOBG/5mOpBsCAwEAAaOB
jzCBjDAJBgNVHRMEAjAAMBEGCWCGSAGG+EIBAQQEAwIGwDAsBglghkgBhvhCAQ0E
HxYdT3BlblNTTCBHZW5lcmF0ZWQgQ2VydGlmaWNhdGUwHQYDVR0OBBYEFGdSi2pd
yBhweM3P8zs9Hi1DxvGpMB8GA1UdIwQYMBaAFCMZhlzLp1jt7NflTZYGUJRjjBJD
MA0GCSqGSIb3DQEBBQUAA4GBAJ6A0PK1aMqBThFM7rsOV8TlChHntPlHVEsQNfCi
wvSyCSXfo9AqNcoLj6NNNkP8cJoKz3jFMj5xulBgR+xeZ8C3A0A5OzWpTZb/RIBv
M3efxF8QSJZuJuTWlsgQ70k9y/jmcirgE2TOFLbhr4AjeBmjVjw7y29N3N63ftx0
ddmq
-----END CERTIFICATE-----
